(dp0
S'params2'
p1
(dp2
S'model_drawing_style'
p3
(dp4
S'fat_bond_width'
p5
I4
sS'anisou_style'
p6
S'axes'
p7
sS'bond_width'
p8
I2
sS'thin_bond_width'
p9
I1
sS'ball_radii_scale'
p10
F0.20000000000000001
sS'arrow_length'
p11
F2.2000000000000002
sS'flatten_loop'
p12
I0
sS'trace_cutoff'
p13
F5.0
sS'worm_width'
p14
F0.20000000000000001
sS'anisou_scale'
p15
F1.0
sS'flatten_beta'
p16
I1
sS'ribbon_width'
p17
F2.5
sS'dashed_bond_length'
p18
F0.29999999999999999
sS'nucleic_stick_width'
p19
F0.40000000000000002
sS'arrow_width'
p20
F2.2000000000000002
sS'spline_beta_flat'
p21
I1
sS'ballstick_stick'
p22
F0.10000000000000001
sS'dashed_bonds'
p23
I0
sS'alpha_helix_width'
p24
F1.5
sS'helix_style'
p25
I0
sS'helix_tube_diameter'
p26
F1.5
sS'pyramid_size'
p27
F0.10000000000000001
sS'base_block_thickness'
p28
F0.20000000000000001
sS'anisou_scale_byvdw'
p29
I1
sS'cylinder_width'
p30
F0.20000000000000001
sS'sphere_radii_scale'
p31
F0.80000000000000004
sS'two_colour_ribbon'
p32
I0
sS'ribbon_style'
p33
I0
ssS'atomtype'
p34
(dp35
S'ranges'
p36
(lp37
S'*'
p38
aS' C'
p39
aS' O'
p40
aS' N'
p41
aS' S'
p42
aS' H'
p43
aS' P'
p44
asS'colours'
p45
(lp46
S'grey'
p47
aS'green'
p48
aS'red'
p49
aS'blue'
p50
aS'yellow'
p51
aS'grey'
p52
aS'magenta'
p53
asS'colour_wheel_direction'
p54
S'clockwise'
p55
sS'interpolate_mode'
p56
S'HSV'
p57
ssS'HBond_param'
p58
(dp59
S'min_D_H_A'
p60
F90.0
sS'max_H_A'
p61
F2.5
sS'min_DD_D_A'
p62
F90.0
sS'max_D_A'
p63
F3.8999999999999999
sS'min_H_A_AA'
p64
F90.0
sS'min_D_A_AA'
p65
F90.0
sS'min_D_A'
p66
F2.0
ssS'stereo_prefs'
p67
(dp68
S'stereo_mode'
p69
I0
sS'shear_sep'
p70
F0.10000000000000001
sS'rot_sep'
p71
F6.0
ssS'HBond_drawing_style'
p72
(dp73
S'line_width'
p74
I2
sS'line_style'
p75
S'lines'
p76
sS'label_mode'
p77
I0
ssS'restype'
p78
(dp79
g36
(lp80
g38
aS'PHE'
p81
aS'TRP'
p82
aS'TYR'
p83
aS'PRO'
p84
aS'VAL'
p85
aS'ALA'
p86
aS'ILE'
p87
aS'LEU'
p88
aS'SER'
p89
aS'THR'
p90
aS'ASN'
p91
aS'GLN'
p92
aS'ARG'
p93
aS'LYS'
p94
aS'ASP'
p95
aS'GLU'
p96
aS'CYS'
p97
aS'MET'
p98
aS'GLY'
p99
aS'HIS'
p100
aS'A'
p101
aS'T'
p102
aS'G'
p103
aS'C'
p104
aS'U'
p105
aS'DA'
p106
aS'DT'
p107
aS'DG'
p108
aS'DC'
p109
aS'ADE'
p110
asg45
(lp111
S'grey'
p112
aS'magenta'
p113
aS'magenta'
p114
aS'magenta'
p115
aS'coral'
p116
aS'coral'
p117
aS'coral'
p118
aS'coral'
p119
aS'coral'
p120
aS'cyan'
p121
aS'cyan'
p122
aS'cyan'
p123
aS'cyan'
p124
aS'blue'
p125
aS'blue'
p126
aS'red'
p127
aS'red'
p128
aS'yellow'
p129
aS'yellow'
p130
aS'white'
p131
aS'light blue'
p132
aS'red'
p133
aS'yellow'
p134
aS'green'
p135
aS'blue'
p136
aS'magenta'
p137
aS'red'
p138
aS'yellow'
p139
aS'green'
p140
aS'blue'
p141
aS'red'
p142
asg54
g55
sg56
g57
ssS'atom_label_params'
p143
(dp144
S'truncate_mol_name'
p145
I0
sS'show_number_label'
p146
I0
sS'label_select'
p147
S'label_no'
p148
sS'truncate_mol_name_length'
p149
I6
sS'label_style'
p150
(lp151
I0
aI0
aI0
aI1
aI1
aI0
aI0
aI0
aI0
aI0
aI0
aI0
aI0
aI0
aI0
assS'SecStr_param'
p152
(dp153
S'flagBulge'
p154
I1
ssS'model_drawing_style_ribbon_and_ligand2'
p155
(dp156
g5
I4
sg6
g7
sg8
I2
sg9
I1
sg10
F0.20000000000000001
sg11
F2.2000000000000002
sg12
I0
sg13
F5.0
sg14
F0.20000000000000001
sg15
F1.0
sg16
I1
sg17
F2.5
sg18
F0.29999999999999999
sg19
F0.40000000000000002
sg20
F2.2000000000000002
sg21
I1
sg22
F0.10000000000000001
sg23
I0
sg24
F1.5
sg25
I0
sg26
F1.5
sg27
F0.10000000000000001
sg28
F0.20000000000000001
sg29
I1
sg30
F0.29999999999999999
sg31
F0.80000000000000004
sg32
I0
sg33
I0
ssS'socket_preferences'
p157
(dp158
S'local_only'
p159
I1
sS'open_socket'
p160
I0
ssS'centre_mode'
p161
(dp162
S'centre_method'
p163
I0
ssS'render_quality'
p164
(dp165
S'smooth_line'
p166
I1
sS'solid_quality'
p167
I1
ssS'update_preferences'
p168
(dp169
S'check_at_start'
p170
I0
ssS'save_session_options'
p171
(dp172
S'backup_data_files'
p173
I0
sS'restore_data'
p174
I1
sS'save_projects'
p175
I0
sssS'gui_params'
p176
(dp177
S'background_colour'
p178
(lp179
I255
aI255
aI255
asS'main_toolbar'
p180
(dp181
S'toolbar_icon_size'
p182
S'medium'
p183
sS'toolbar_loaded_actions'
p184
(lp185
S'view_back'
p186
aS'view_forward'
p187
aS'display_back'
p188
aS'display_forward'
p189
aS'recentre'
p190
aS'centreOn'
p191
aS'fog_on'
p192
aS'clearLabels'
p193
asS'toolbar_style'
p194
S'icon_only'
p195
ssS'last_directory'
p196
S'/Users/lizp/Desktop/dev/ccp4i2/qticons'
p197
sS'rockParams'
p198
(dp199
S'rollorientation'
p200
S'y'
p201
sS'rollspeed'
p202
F0.5
sS'rockspeed'
p203
F0.5
sS'rockangle'
p204
I20
ssS'centre_mode'
p205
I0
sS'show_axes'
p206
I0
ssS'picture_wizard'
p207
(dp208
S'default_drawing_style'
p209
S'ribbons:colour_blend_thru_chain'
p210
sS'hide_unselected_dataobj'
p211
I0
sS'keep_display_objects'
p212
I0
sS'recentre'
p213
I0
sS'show_wizard_choices'
p214
I0
ssS'view2'
p215
(dp216
S'scale'
p217
F645.96725339649993
sS'fog_strength'
p218
I0
sS'transparency'
p219
I00
sS'quat'
p220
(lp221
F0.66077196558002171
aF-0.10005654557597915
aF0.23879446210556743
aF-0.70451848950808071
asS'pos'
p222
(lp223
F-35.870724168690444
aF-89.839298350570331
aF-24.030087257626001
asS'slab_offset'
p224
I0
sS'fog_near'
p225
F-10.0
sS'slab_enabled'
p226
I00
sS'fog_enabled'
p227
I0
sS'slab_width'
p228
I10
sS'fog_far'
p229
F10.0
ssS'applications'
p230
(dp231
S'run_coot'
p232
(dp233
S'setup_script'
p234
S''
p235
ssS'picture_wizard'
p236
(dp237
g209
g210
sg211
I0
sg212
I0
sg213
I0
sg214
I0
sssS'AllModelInfo'
p238
(dp239
S'test'
p240
(iModelInfo
ModInfo
p241
(dp242
S'ccp4mg_version'
p243
S'2.2.0'
p244
sS'pdbfile'
p245
S'/Users/lizp/Desktop/test.pdb'
p246
sS'selection_protocols'
p247
(dp248
S'monomer'
p249
(dp250
S'ORDER'
p251
(lp252
S'FFF'
p253
aS'XXX'
p254
assS'element'
p255
(dp256
g235
g235
sS' H'
p257
g257
sg251
(lp258
g235
ag257
asssbsS'1a4g_A'
p259
(iModelInfo
ModInfo
p260
(dp261
S'user_selection'
p262
(dp263
S'nn2'
p264
(lp265
NaS'neighb cid="A/1" maxd=5.0 group=residue excl=central,solvent'
p266
assS'user_colour_schemes'
p267
(dp268
S'light green '
p269
(lp270
(lp271
S'grey'
p272
ag235
aa(lp273
S'light green'
p274
a(lp275
NaS'[C]'
p276
aaa(lp277
S'red'
p278
a(lp279
NaS'[O]'
p280
aaa(lp281
S'blue'
p282
a(lp283
NaS'[N]'
p284
aaa(lp285
S'yellow'
p286
a(lp287
NaS'[S]'
p288
aaa(lp289
S'grey'
p290
a(lp291
NaS'[H]'
p292
aaa(lp293
S'magenta'
p294
a(lp295
NaS'[P]'
p296
aaassS'pdbfile'
p297
S'/Users/lizp/Desktop/data/1a4g_A.pdb'
p298
sS'superpose_matches'
p299
(dp300
S'2ht8'
p301
(lp302
(dp303
S'on'
p304
I1
sS'qualifier'
p305
g235
sS'sele2'
p306
S'A/97'
p307
sS'sele1'
p308
S'A/97'
p309
sS'mode'
p310
S'range'
p311
sS'close'
p312
I0
sassS'selection_protocols'
p313
(dp314
S'monomer'
p315
(dp316
S'ORDER'
p317
(lp318
S'CA'
p319
aS'NAG'
p320
aS'ZMR'
p321
assS'element'
p322
(dp323
S' S'
p324
g324
sS'CA'
p325
g325
sg317
(lp326
g324
ag325
asssS'user_selparams'
p327
(dp328
g264
(dp329
ssS'ccp4mg_version'
p330
S'1.99.0'
p331
sbsS'ala'
p332
(iModelInfo
ModInfo
p333
(dp334
S'ccp4mg_version'
p335
S'2.2.0'
p336
sS'pdbfile'
p337
S'/Users/lizp/Desktop/data/ala.pdb'
p338
sbssS'light'
p339
(dp340
I0
(dp341
S'position'
p342
(F0.0
F0.0
F60.0
tp343
sS'on'
p344
I1
sS'specular'
p345
(F1.0
F1.0
F1.0
tp346
sS'diffuse'
p347
(F1.0
F1.0
F1.0
tp348
sS'ambient'
p349
(F0.0
F0.0
F0.0
tp350
ssS'nLights'
p351
I1
ssS'COLOUR'
p352
(lp353
(lp354
(lp355
S'default'
p356
a(lp357
F0.5
aF0.5
aF0.5
aF1.0
aaa(lp358
S'white'
p359
a(lp360
F1.0
aF1.0
aF1.0
aF1.0
aaa(lp361
S'blue'
p362
a(lp363
I0
aI0
aF1.0
aF1.0
aaa(lp364
S'red'
p365
a(lp366
F1.0
aI0
aI0
aF1.0
aaa(lp367
S'green'
p368
a(lp369
I0
aF1.0
aI0
aF1.0
aaa(lp370
S'yellow'
p371
a(lp372
F1.0
aF1.0
aI0
aF1.0
aaa(lp373
S'magenta'
p374
a(lp375
F1.0
aI0
aF1.0
aF1.0
aaa(lp376
S'light blue'
p377
a(lp378
F0.25
aF0.40000000000000002
aF0.88
aF1.0
aaa(lp379
S'cyan'
p380
a(lp381
I0
aF1.0
aF1.0
aF1.0
aaa(lp382
S'coral'
p383
a(lp384
F1.0
aF0.5
aF0.29999999999999999
aF1.0
aaa(lp385
S'light green'
p386
a(lp387
F0.59999999999999998
aF1.0
aF0.59999999999999998
aF1.0
aaa(lp388
S'pink'
p389
a(lp390
F1.0
aF0.56999999999999995
aF0.56999999999999995
aF1.0
aaa(lp391
S'lemon'
p392
a(lp393
F1.0
aF1.0
aF0.5
aF1.0
aaa(lp394
S'purple'
p395
a(lp396
F0.56999999999999995
aI0
aF1.0
aF1.0
aaa(lp397
S'tan'
p398
a(lp399
F0.46999999999999997
aI0
aI0
aF1.0
aaa(lp400
S'grey'
p401
a(lp402
F0.5
aF0.5
aF0.5
aF1.0
aaa(lp403
S'black'
p404
a(lp405
I0
aI0
aI0
aF1.0
aaaaI17
asS'fonts'
p406
(dp407
S'atom_label'
p408
(dp409
S'size'
p410
I12
sS'underline'
p411
I0
sS'weight'
p412
S'medium'
p413
sS'family'
p414
S'Sans Serif'
p415
sS'slant'
p416
S'r'
p417
ssS'annotation'
p418
(dp419
g410
I12
sg411
I0
sg412
g413
sg414
g415
sg416
g417
ssS'pick_atom_label'
p420
(dp421
g410
I12
sg411
I0
sg412
g413
sg414
g415
sg416
g417
ssS'legend'
p422
(dp423
g410
I12
sg411
I0
sg412
g413
sg414
g415
sg416
g417
sssS'CrystalData'
p424
(idataobj
DataObjShadow
p425
(dp426
S'name'
p427
g424
sS'object_type'
p428
g424
sS'objnames'
p429
(lp430
S'crystal1'
p431
asS'filename'
p432
g235
sS'dataparams'
p433
(dp434
sS'visible'
p435
I1
sS'objinsts'
p436
(lp437
(idataobj
DispObjShadow
p438
(dp439
g435
I1
sg428
S'Crystal'
p440
sS'params'
p441
(dp442
S'style'
p443
S'CONTINUOUS'
p444
sS'unit_cell_shift'
p445
(lp446
I0
aI0
aI0
asS'cell_edges'
p447
I1
sS'models_in_crystal'
p448
(lp449
g259
asS'source'
p450
S'1a4g_A'
p451
sS'symm_diff_colour'
p452
I1
ssg427
g431
sbasbsg332
(idataobj
DataObjShadow
p453
(dp454
g427
g332
sg428
S'MolData'
p455
sg429
(lp456
S'alaMolDisp1'
p457
asg432
(lp458
S'data'
p459
aS'ala.pdb'
p460
aS'/Users/lizp/Desktop/data/ala.pdb'
p461
asg433
(dp462
g435
I0
sg428
g455
sS'model_symmetry'
p463
(dp464
S'symmetry_visible'
p465
(lp466
sS'symmetry_colours'
p467
(lp468
sS'MolDisp_selection'
p469
S'all atoms'
p470
sS'symmetry_MolDisp_objects'
p471
(lp472
sS'MolDisp_visible'
p473
I1
ssS'module'
p474
S'model'
p475
sg432
g458
ssg435
I1
sg436
(lp476
(idataobj
DispObjShadow
p477
(dp478
S'colparams'
p479
(dp480
S'interface_MolData_name'
p481
g235
sS'non_C_atomtype'
p482
I0
sS'colour_blend'
p483
(dp484
g45
(lp485
(lp486
S'red'
p487
aS'magenta'
p488
aasS'selection_command'
p489
(lp490
S'A/'
p491
asS'direction'
p492
(lp493
S'clockwise'
p494
asS'default_colour'
p495
S'grey'
p496
sS'group'
p497
S'SSE'
p498
sS'type'
p499
S'peptide'
p500
ssS'one_colour'
p501
g235
sS'user_scheme'
p502
(lp503
S'Edited scheme'
p504
asS'stick_colour'
p505
S'ATOM'
p506
sS'colour_legend'
p507
S'<p><span style="color:;">Atom type </span>\n</p><p><span style="color:green;">C  </span>\n<span style="color:red;">O  </span>\n<span style="color:blue;">N  </span>\n<span style="color:yellow;">S  </span>\n<span style="color:grey;">H  </span>\n<span style="color:magenta;">P  </span>\n</p>'
p508
sS'interface_selection'
p509
g235
sS'colour_mode'
p510
S'atomtype'
p511
sS'colour_rules'
p512
(lp513
sS'interface_style'
p514
S'RESIDUE'
p515
ssg427
g457
sg428
S'MolDisp'
p516
sg435
I1
sS'selparams'
p517
(dp518
S'features'
p519
g235
sS'symid'
p520
g235
sS'neighb_mol'
p521
g235
sS'ranges_neighb_invert'
p522
I0
sS'buried_sel'
p523
g235
sS'contact_mol'
p524
g235
sS'property_join'
p525
S'and'
p526
sS'neighb_rad'
p527
S'4.0'
p528
sS'select'
p529
S'cid'
p530
sS'restypes'
p531
(lp532
sS'ranges_neighb_cutoff'
p533
F4.0
sS'ranges_extend'
p534
I1
sS'nmr_models'
p535
(lp536
sS'elementtypes'
p537
(lp538
sS'ranges_neighb_model'
p539
g235
sS'ranges_neighb_qualifier'
p540
S'all'
p541
sS'neighb_excl_solvent'
p542
I0
sS'buried_mol'
p543
g235
sS'same_as'
p544
I0
sS'secstr'
p545
(lp546
sS'neighb_hb'
p547
I0
sS'neighb_sym'
p548
I0
sS'chains'
p549
(lp550
sS'property_gt_value'
p551
(lp552
sS'alt_locs'
p553
(lp554
sS'contact_sel'
p555
g235
sS'property_gt_op'
p556
(lp557
sS'nothydrogen'
p558
I0
sS'property_lt_value'
p559
(lp560
sS'as_MolDisp'
p561
g235
sg36
(lp562
sS'monomers'
p563
(lp564
sS'neighb_excl_monomer'
p565
I0
sS'selection_scheme'
p566
g235
sS'ranges_qualifier'
p567
g235
sS'neighb_sel'
p568
g235
sS'buried_group'
p569
S'atom'
p570
sS'user_sel'
p571
g235
sS'cid'
p572
S'A/'
p573
sS'neighb_excl'
p574
I1
sS'property_lt_op'
p575
(lp576
sS'ranges_invert'
p577
I0
sS'atomtype'
p578
g235
sS'command'
p579
g573
sS'neighb_selobj'
p580
g235
sS'neighb_group'
p581
S'residue'
p582
sS'buried_and_selection'
p583
g235
sS'property'
p584
(lp585
sS'ranges_neighb_selection'
p586
g235
ssg441
(dp587
S'opacity'
p588
F1.0
sg435
I1
sS'legend_visible'
p589
I0
sS'contact_MolDisp'
p590
g235
sS'label_params'
p591
(dp592
g150
g151
sS'label_user_oneperres'
p593
I1
sS'label_colour'
p594
S'complement'
p595
sg145
I0
sS'label_user_selparams'
p596
(dp597
sg147
g148
sg149
I6
sssS'styleparams'
p598
(dp599
S'style_mode'
p600
S'FATBONDS'
p601
sS'inter_dispobj_bond'
p602
I1
ssbasbsS'pick_labels'
p603
(dp604
S'max_labels'
p605
I3
sg145
I0
sg149
I6
sg150
(lp606
I0
aI0
aI0
aI1
aI1
aI0
aI1
aI0
aI0
aI0
aI0
aI0
aI0
aI0
aI0
assS'file_viewer'
p607
(dp608
S'supported_plugins'
p609
(dp610
ssS'Data_list'
p611
(lp612
g332
ag240
ag259
ag424
asS'version'
p613
S'2.2.0'
p614
sS'ModelInfo'
p615
(dp616
S'user_file'
p617
(dp618
S'generic'
p619
(lp620
S'dotCCP4MG'
p621
aS'generic.ccp4mg'
p622
aS'/Users/lizp/.CCP4MG2/generic.ccp4mg'
p623
asssS'plugins'
p624
(dp625
S'GeometricObjects'
p626
(dp627
S'objects'
p628
(lp629
ssS'Render'
p630
(dp631
S'stereo'
p632
I00
sS'save_status'
p633
I01
sS'scaleFonts'
p634
I1
sS'stereo_sep'
p635
F0.10000000000000001
sS'size_mode'
p636
S'window'
p637
sS'height'
p638
I600
sS'stereo_angle'
p639
F6.0
sS'width'
p640
I600
sS'magnification'
p641
F1.0
sS'keepAspect'
p642
I0
sS'stereo_mode'
p643
S'shear'
p644
sS'preview'
p645
I01
sS'transparent'
p646
I00
sS'renderParams'
p647
(dp648
S'smoothRibbons'
p649
I00
sS'save_rib'
p650
I00
sS'raytrace'
p651
I00
ssS'scaleImages'
p652
I1
ssS'GeometryPlugin'
p653
(dp654
S'style'
p655
(dp656
S'linecolour'
p657
S'red'
p658
sS'linewidth'
p659
I2
sS'linestyle'
p660
I1
sS'labelcolour'
p661
S'complement'
p662
ssS'atoms'
p663
(lp664
(lp665
asssS'mouse_bindings'
p666
(dp667
S'translate-z'
p668
(dp669
S'shift'
p670
I0
sS'alt'
p671
I0
sS'mouse_button'
p672
S'middle'
p673
sS'key'
p674
S'z'
p675
sS'ctrl'
p676
I0
ssS'object-rotate-xy'
p677
(dp678
g670
I0
sg671
I0
sg672
S'left'
p679
sg674
S'x'
p680
sg676
I0
ssS'rotate-xy'
p681
(dp682
g670
I0
sg671
I0
sg672
g679
sg674
S' '
p683
sg676
I0
ssS'object-translate-z'
p684
(dp685
g670
I1
sg671
I0
sg672
g673
sg674
g680
sg676
I0
ssS'zoom'
p686
(dp687
g670
I0
sg671
I0
sg672
g673
sg674
g683
sg676
I0
ssS'translate-xy'
p688
(dp689
g670
I1
sg671
I0
sg672
g673
sg674
g683
sg676
I0
ssS'clip-width'
p690
(dp691
g670
I0
sg671
I0
sg672
g673
sg674
S'c'
p692
sg676
I0
ssS'rotate-z'
p693
(dp694
g670
I1
sg671
I0
sg672
g679
sg674
g683
sg676
I0
ssS'object-rotate-z'
p695
(dp696
g670
I1
sg671
I0
sg672
g679
sg674
g680
sg676
I0
ssS'object-translate-xy'
p697
(dp698
g670
I0
sg671
I0
sg672
g673
sg674
g680
sg676
I0
sssS'windowGeometry'
p699
csip
_unpickle_type
p700
(S'PyQt4.QtCore'
p701
S'QByteArray'
p702
(S'\x01\xd9\xd0\xcb\x00\x01\x00\x00\x00\x00\x00\xc4\x00\x00\x00T\x00\x00\x01b\x00\x00\x018\x00\x00\x00\xc4\x00\x00\x00j\x00\x00\x01b\x00\x00\x018\x00\x00\x00\x00\x00\x00'
p703
tp704
tp705
Rp706
sg259
(idataobj
DataObjShadow
p707
(dp708
g427
g259
sg428
g455
sg429
(lp709
S'1a4g_AMolDisp1'
p710
aS'1a4g_AMolDisp2'
p711
aS'1a4g_AMolDisp3'
p712
aS'1a4g_AMolDisp4'
p713
asg432
(lp714
S'data'
p715
aS'1a4g_A.pdb'
p716
aS'/Users/lizp/Desktop/data/1a4g_A.pdb'
p717
asg433
(dp718
g435
I1
sg428
g455
sg463
(dp719
g465
(lp720
sg467
(lp721
sg469
S'all atoms'
p722
sg471
(lp723
sg473
I1
ssg474
g475
sg432
g714
ssg435
I1
sg436
(lp724
(idataobj
DispObjShadow
p725
(dp726
g479
(dp727
g481
g235
sg482
I0
sg483
(dp728
g45
(lp729
(lp730
S'red'
p731
aS'magenta'
p732
aasg489
(lp733
S'A/'
p734
asg492
(lp735
S'clockwise'
p736
asg495
S'grey'
p737
sg497
S'SSE'
p738
sg499
S'peptide'
p739
ssg501
g235
sg502
(lp740
S'Edited scheme'
p741
asg505
S'ATOM'
p742
sg507
S'Blend through model'
p743
sg509
g235
sg510
S'blend'
p744
sg512
(lp745
sg514
S'RESIDUE'
p746
ssg427
g710
sg428
g516
sg435
I0
sg517
(dp747
g519
g235
sg520
g235
sg521
g235
sg522
I0
sg523
g235
sg524
g235
sg525
S'and'
p748
sg527
S'4.0'
p749
sg529
g572
sg531
(lp750
sg533
F4.0
sg534
I1
sg535
(lp751
sg537
(lp752
sg539
g235
sg540
S'all'
p753
sg542
I0
sg543
g235
sg544
I0
sg545
(lp754
sg547
I0
sg548
I0
sg549
(lp755
sg551
(lp756
sg553
(lp757
sg555
g235
sg556
(lp758
sg558
I0
sg559
(lp759
sg561
g235
sg36
(lp760
sg563
(lp761
sg565
I0
sg566
g235
sg567
g235
sg568
g235
sg569
S'atom'
p762
sg571
g235
sg572
S'A/'
p763
sg574
I1
sg575
(lp764
sg577
I0
sg578
g235
sg579
g763
sg580
g235
sg581
S'residue'
p765
sg583
g235
sg584
(lp766
sg586
g235
ssg441
(dp767
g588
F1.0
sg435
I0
sg589
I0
sg590
g235
sg591
(dp768
g150
g151
sg593
I1
sg594
g595
sg145
I0
sg596
g597
sg147
g148
sg149
I6
sssg598
(dp769
g600
S'SPLINE'
p770
sg602
I1
ssba(idataobj
DispObjShadow
p771
(dp772
g479
(dp773
g481
g235
sg482
I1
sg483
(dp774
g45
(lp775
(lp776
g731
ag732
aasg489
(lp777
g739
asg492
(lp778
g736
asg495
S'white'
p779
sg497
g765
sg499
g753
ssg501
S'yellow'
p780
sg502
g740
sg505
g742
sg507
g235
sg509
g235
sg510
g501
sg512
g745
sg514
g746
ssg427
g711
sg428
g516
sg435
I0
sg517
(dp781
g519
S'ssbond'
p782
sg520
g235
sg521
g235
sg522
I0
sg523
g235
sg524
g235
sg525
g748
sg527
g749
sg529
g519
sg531
(lp783
sg533
F4.0
sg534
I1
sg535
(lp784
sg537
(lp785
sg539
g235
sg540
g753
sg542
I0
sg543
g235
sg544
I0
sg545
(lp786
sg547
I0
sg548
I0
sg549
(lp787
sg551
(lp788
sg553
(lp789
sg555
g235
sg556
(lp790
sg558
I0
sg559
(lp791
sg561
g235
sg36
(lp792
sg563
(lp793
sg565
I0
sg566
g235
sg567
g235
sg568
g235
sg569
g762
sg571
g235
sg572
g235
sg574
I1
sg575
(lp794
sg577
I0
sg578
g235
sg579
g782
sg580
g235
sg581
g765
sg583
g235
sg584
(lp795
sg586
g235
ssg441
(dp796
g588
F1.0
sg435
I0
sg589
I0
sg590
g235
sg591
(dp797
g150
g151
sg593
I1
sg594
g595
sg145
I0
sg596
g597
sg147
g148
sg149
I6
sssg598
(dp798
g600
S'CYLINDERS'
p799
sg602
I1
ssba(idataobj
DispObjShadow
p800
(dp801
g479
(dp802
g481
g235
sg482
I0
sg483
(dp803
g45
g775
sg489
g777
sg492
g778
sg495
g779
sg497
g765
sg499
g753
ssg501
g235
sg502
g740
sg505
g742
sg507
S'<p><span style="color:;">Atom type </span>\n</p><p><span style="color:green;">C  </span>\n<span style="color:red;">O  </span>\n<span style="color:blue;">N  </span>\n<span style="color:yellow;">S  </span>\n<span style="color:grey;">H  </span>\n<span style="color:magenta;">P  </span>\n</p>'
p804
sg509
g235
sg510
g578
sg512
g745
sg514
g746
ssg427
g712
sg428
g516
sg435
I0
sg517
(dp805
g519
g235
sg520
g235
sg521
g235
sg522
I0
sg523
g235
sg524
g235
sg525
g748
sg527
g749
sg529
g572
sg531
(lp806
sg533
F4.0
sg534
I1
sg535
(lp807
sg537
(lp808
sg539
g235
sg540
g753
sg542
I0
sg543
g235
sg544
I0
sg545
(lp809
sg547
I0
sg548
I0
sg549
(lp810
sg551
(lp811
sg553
(lp812
sg555
g235
sg556
(lp813
sg558
I0
sg559
(lp814
sg561
g235
sg36
(lp815
sg563
(lp816
S'A/2(CA)'
p817
aS'C/254(ZMR)'
p818
asg565
I0
sg566
g235
sg567
g235
sg568
g235
sg569
g762
sg571
g235
sg572
S'A/2(CA) or C/254(ZMR)'
p819
sg574
I1
sg575
(lp820
sg577
I0
sg578
g235
sg579
S'A/2(CA) or C/254(ZMR)'
p821
sg580
g235
sg581
g765
sg583
g235
sg584
(lp822
sg586
g235
ssg441
(dp823
g588
F1.0
sS'drawing_style'
p824
S'model_drawing_style_ribbon_and_ligand2'
p825
sg589
I0
sg435
I0
sg590
g235
sg591
(dp826
g150
(lp827
I0
aI0
aI0
aI1
aI1
aI1
aI0
aI0
aI0
aI0
aI0
aI0
aI0
aI0
aI0
asg593
I1
sg594
g595
sg145
I0
sg596
g597
sg147
g148
sg149
I6
sssg598
(dp828
g600
g799
sg602
I1
ssba(idataobj
DispObjShadow
p829
(dp830
g479
(dp831
g481
g235
sg482
I0
sg483
(dp832
g45
g775
sg489
g777
sg492
g778
sg495
g779
sg497
g765
sg499
g753
ssg501
g235
sg502
g740
sg505
g742
sg507
S'<p><span style="color:;">Atom type </span>\n</p><p><span style="color:green;">C  </span>\n<span style="color:red;">O  </span>\n<span style="color:blue;">N  </span>\n<span style="color:yellow;">S  </span>\n<span style="color:grey;">H  </span>\n<span style="color:magenta;">P  </span>\n</p>'
p833
sg509
g235
sg510
g578
sg512
g745
sg514
g746
ssg427
g713
sg428
g516
sg435
I1
sg517
(dp834
g519
S'metal'
p835
sg520
g235
sg521
g235
sg522
I0
sg523
g235
sg524
g235
sg525
g748
sg527
g749
sg529
g519
sg531
(lp836
sg533
F4.0
sg534
I1
sg535
(lp837
sg537
(lp838
sg539
g235
sg540
g753
sg542
I0
sg543
g235
sg544
I0
sg545
(lp839
sg547
I0
sg548
I0
sg549
(lp840
sg551
(lp841
sg553
(lp842
sg555
g235
sg556
(lp843
sg558
I0
sg559
(lp844
sg561
g235
sg36
(lp845
sg563
(lp846
sg565
I0
sg566
g235
sg567
g235
sg568
g235
sg569
g762
sg571
g235
sg572
g235
sg574
I1
sg575
(lp847
sg577
I0
sg578
g235
sg579
g835
sg580
g235
sg581
g765
sg583
g235
sg584
(lp848
sg586
g235
ssg441
(dp849
g588
F1.0
sg435
I1
sg589
I0
sg590
g235
sg591
(dp850
g150
(lp851
I0
aI0
aI0
aI1
aI1
aI1
aI1
aI0
aI0
aI0
aI0
aI0
aI0
aI0
aI0
asg593
I1
sg594
g595
sg145
I0
sg596
g597
sg147
g148
sg149
I6
sssg598
(dp852
g600
S'BONDS'
p853
sg602
I1
ssbasbsg240
(idataobj
DataObjShadow
p854
(dp855
g427
g240
sg428
g455
sg429
(lp856
S'testMolDisp2'
p857
asg432
(lp858
S'FULLPATH'
p859
aS'/Users/lizp/Desktop/test.pdb'
p860
ag860
asg433
(dp861
g435
I0
sg428
g455
sg463
(dp862
g465
(lp863
sg467
(lp864
sg469
S'all atoms'
p865
sg471
(lp866
sg473
I1
ssg474
g475
sg432
g858
ssg435
I1
sg436
(lp867
(idataobj
DispObjShadow
p868
(dp869
g479
(dp870
g481
g235
sg482
I0
sg483
(dp871
g45
(lp872
(lp873
S'red'
p874
aS'magenta'
p875
aasg489
(lp876
S'peptide'
p877
asg492
(lp878
S'clockwise'
p879
asg495
S'white'
p880
sg497
S'residue'
p881
sg499
S'all'
p882
ssg501
g235
sg502
(lp883
S'Edited scheme'
p884
asg505
S'ATOM'
p885
sg507
S'<p><span style="color:;">Atom type </span>\n</p><p><span style="color:green;">C  </span>\n<span style="color:red;">O  </span>\n<span style="color:blue;">N  </span>\n<span style="color:yellow;">S  </span>\n<span style="color:grey;">H  </span>\n<span style="color:magenta;">P  </span>\n</p>'
p886
sg509
g235
sg510
S'atomtype'
p887
sg512
(lp888
sg514
S'RESIDUE'
p889
ssg427
g857
sg428
g516
sg435
I1
sg517
(dp890
g519
g235
sg520
g235
sg521
g235
sg522
I0
sg523
g235
sg524
g235
sg525
S'and'
p891
sg527
S'4.0'
p892
sg529
S'cid'
p893
sg531
(lp894
sg533
F4.0
sg534
I1
sg535
(lp895
sg537
(lp896
sg539
g235
sg540
g882
sg542
I0
sg543
g235
sg544
I0
sg545
(lp897
sg547
I0
sg548
I0
sg549
(lp898
sg551
(lp899
sg553
(lp900
sg555
g235
sg556
(lp901
sg558
I0
sg559
(lp902
sg561
g235
sg36
(lp903
sg563
(lp904
S'A/1(XXX)'
p905
asg565
I0
sg566
g235
sg567
g235
sg568
g235
sg569
S'atom'
p906
sg571
g235
sg572
S'A/1(XXX)'
p907
sg574
I1
sg575
(lp908
sg577
I0
sg578
g235
sg579
g907
sg580
g235
sg581
g881
sg583
g235
sg584
(lp909
sg586
g235
ssg441
(dp910
g588
F1.0
sg824
S'model_drawing_style_ribbon_and_ligand2'
p911
sg589
I0
sg435
I1
sg590
g235
sg591
(dp912
g150
(lp913
I0
aI0
aI0
aI1
aI1
aI1
aI0
aI0
aI0
aI0
aI0
aI0
aI0
aI0
aI0
asg593
I1
sg594
g595
sg145
I0
sg596
g597
sg147
g148
sg149
I6
sssg598
(dp914
g600
S'CYLINDERS'
p915
sg602
I1
ssbasbs.